; Function Attrs: alwaysinline norecurse nounwind ssp uwtable
define internal void @_ZN6open3d4core6kernel18CPUReductionEngine28LaunchReductionKernelTwoPassIsPFsssEEEvRKNS0_7IndexerET0_T_.omp_outlined(ptr noalias noundef readonly captures(none) %0, ptr noalias readnone captures(none) %1, ptr noundef nonnull readonly align 8 captures(none) dereferenceable(8) %2, ptr noundef nonnull readonly align 8 captures(none) dereferenceable(8) %3, ptr noundef nonnull readonly align 8 captures(none) dereferenceable(8) %4, ptr noundef nonnull readonly align 2 captures(none) dereferenceable(2) %5, ptr noundef nonnull readonly align 8 captures(none) dereferenceable(842) %6, ptr noundef nonnull readonly align 8 captures(none) dereferenceable(8) %7, ptr noundef nonnull readonly align 8 captures(none) dereferenceable(24) %8) #26 personality ptr @__gxx_personality_v0 {
  %10 = alloca i64, align 8
  %11 = alloca i64, align 8
  %12 = alloca i64, align 8
  %13 = alloca i32, align 4
  %14 = load i64, ptr %2, align 8, !tbaa !62
  %15 = icmp sgt i64 %14, 0
  br i1 %15, label %16, label %68

16:                                               ; preds = %9
  %17 = add nsw i64 %14, -1
  call void @llvm.lifetime.start.p0(i64 8, ptr nonnull %10) #27
  store i64 0, ptr %10, align 8, !tbaa !62
  call void @llvm.lifetime.start.p0(i64 8, ptr nonnull %11) #27
  store i64 %17, ptr %11, align 8, !tbaa !62
  call void @llvm.lifetime.start.p0(i64 8, ptr nonnull %12) #27
  store i64 1, ptr %12, align 8, !tbaa !62
  call void @llvm.lifetime.start.p0(i64 4, ptr nonnull %13) #27
  store i32 0, ptr %13, align 4, !tbaa !48
  %18 = load i32, ptr %0, align 4, !tbaa !48
  call void @__kmpc_for_static_init_8(ptr nonnull @1, i32 %18, i32 34, ptr nonnull %13, ptr nonnull %10, ptr nonnull %11, ptr nonnull %12, i64 1, i64 1)
  %19 = load i64, ptr %11, align 8, !tbaa !62
  %20 = call i64 @llvm.smin.i64(i64 %19, i64 %17)
  store i64 %20, ptr %11, align 8, !tbaa !62
  %21 = load i64, ptr %10, align 8, !tbaa !62
  %.not35 = icmp sgt i64 %21, %20
  br i1 %.not35, label %._crit_edge39, label %.lr.ph38

.lr.ph38:                                         ; preds = %16
  %22 = getelementptr inbounds nuw i8, ptr %6, i64 16
  %23 = getelementptr inbounds nuw i8, ptr %6, i64 744
  %24 = getelementptr inbounds nuw i8, ptr %6, i64 832
  %25 = getelementptr inbounds nuw i8, ptr %6, i64 792
  %26 = getelementptr inbounds nuw i8, ptr %6, i64 80
  %27 = getelementptr inbounds nuw i8, ptr %6, i64 32
  br label %28

28:                                               ; preds = %.lr.ph38, %._crit_edge
  %29 = phi i64 [ %20, %.lr.ph38 ], [ %37, %._crit_edge ]
  %.036 = phi i64 [ %21, %.lr.ph38 ], [ %40, %._crit_edge ]
  %30 = load i64, ptr %3, align 8, !tbaa !62
  %31 = mul nsw i64 %30, %.036
  %32 = add nsw i64 %31, %30
  %33 = load i64, ptr %4, align 8, !tbaa !62
  %.sroa.speculated = call i64 @llvm.smin.i64(i64 %33, i64 %32)
  %34 = load i16, ptr %5, align 2, !tbaa !95
  %35 = icmp slt i64 %31, %.sroa.speculated
  br i1 %35, label %.lr.ph.preheader, label %._crit_edge

.lr.ph.preheader:                                 ; preds = %28
  %36 = icmp sgt i64 %31, -1
  call void @llvm.assume(i1 %36)
  br label %.lr.ph

._crit_edge.loopexit:                             ; preds = %65
  %.pre = load i64, ptr %11, align 8, !tbaa !62
  br label %._crit_edge

._crit_edge:                                      ; preds = %._crit_edge.loopexit, %28
  %37 = phi i64 [ %29, %28 ], [ %.pre, %._crit_edge.loopexit ]
  %.029.lcssa = phi i16 [ %34, %28 ], [ %64, %._crit_edge.loopexit ]
  %38 = load ptr, ptr %8, align 8, !tbaa !858
  %39 = getelementptr inbounds nuw i16, ptr %38, i64 %.036
  store i16 %.029.lcssa, ptr %39, align 2, !tbaa !95
  %40 = add nsw i64 %.036, 1
  %.not.not = icmp slt i64 %.036, %37
  br i1 %.not.not, label %28, label %._crit_edge39

.lr.ph:                                           ; preds = %.lr.ph.preheader, %65
  %.02833 = phi i64 [ %66, %65 ], [ %31, %.lr.ph.preheader ]
  %.02932 = phi i16 [ %64, %65 ], [ %34, %.lr.ph.preheader ]
  %41 = load i64, ptr %6, align 8
  %.not.i = icmp sgt i64 %41, 0
  call void @llvm.assume(i1 %.not.i)
  %42 = load i8, ptr %23, align 8, !tbaa !63, !range !117, !noundef !118
  %43 = trunc nuw i8 %42 to i1
  br i1 %43, label %46, label %.preheader.i.i

.preheader.i.i:                                   ; preds = %.lr.ph
  %44 = load i64, ptr %24, align 8, !tbaa !119
  %45 = icmp sgt i64 %44, 0
  br i1 %45, label %.lr.ph.i.i, label %._crit_edge.i.i

46:                                               ; preds = %.lr.ph
  %47 = load ptr, ptr %22, align 8, !tbaa !121
  %48 = load i64, ptr %27, align 8, !tbaa !123
  %49 = mul nsw i64 %48, %.02833
  %50 = getelementptr inbounds i8, ptr %47, i64 %49
  br label %_ZNK6open3d4core7Indexer11GetInputPtrEll.exit

._crit_edge.i.i:                                  ; preds = %.lr.ph.i.i, %.preheader.i.i
  %.017.lcssa.i.i = phi i64 [ 0, %.preheader.i.i ], [ %59, %.lr.ph.i.i ]
  %51 = load ptr, ptr %22, align 8, !tbaa !121
  %52 = getelementptr inbounds i8, ptr %51, i64 %.017.lcssa.i.i
  br label %_ZNK6open3d4core7Indexer11GetInputPtrEll.exit

.lr.ph.i.i:                                       ; preds = %.preheader.i.i, %.lr.ph.i.i
  %.023.i.i = phi i64 [ %61, %.lr.ph.i.i ], [ 0, %.preheader.i.i ]
  %.01722.i.i = phi i64 [ %59, %.lr.ph.i.i ], [ 0, %.preheader.i.i ]
  %.01821.i.i = phi i64 [ %60, %.lr.ph.i.i ], [ %.02833, %.preheader.i.i ]
  %53 = getelementptr inbounds nuw [5 x i64], ptr %25, i64 0, i64 %.023.i.i
  %54 = load i64, ptr %53, align 8, !tbaa !62
  %55 = sdiv i64 %.01821.i.i, %54
  %56 = getelementptr inbounds nuw [5 x i64], ptr %26, i64 0, i64 %.023.i.i
  %57 = load i64, ptr %56, align 8, !tbaa !62
  %58 = mul nsw i64 %57, %55
  %59 = add nsw i64 %58, %.01722.i.i
  %60 = srem i64 %.01821.i.i, %54
  %61 = add nuw nsw i64 %.023.i.i, 1
  %exitcond.not.i.i = icmp eq i64 %61, %44
  br i1 %exitcond.not.i.i, label %._crit_edge.i.i, label %.lr.ph.i.i, !llvm.loop !124

_ZNK6open3d4core7Indexer11GetInputPtrEll.exit:    ; preds = %._crit_edge.i.i, %46
  %.0.i = phi ptr [ %50, %46 ], [ %52, %._crit_edge.i.i ]
  %62 = load ptr, ptr %7, align 8, !tbaa !66
  %63 = load i16, ptr %.0.i, align 2, !tbaa !95
  %64 = invoke noundef signext i16 %62(i16 noundef signext %63, i16 noundef signext %.02932)
          to label %65 unwind label %69

65:                                               ; preds = %_ZNK6open3d4core7Indexer11GetInputPtrEll.exit
  %66 = add nuw nsw i64 %.02833, 1
  %67 = icmp slt i64 %66, %.sroa.speculated
  br i1 %67, label %.lr.ph, label %._crit_edge.loopexit, !llvm.loop !1128

._crit_edge39:                                    ; preds = %._crit_edge, %16
  call void @__kmpc_for_static_fini(ptr nonnull @1, i32 %18)
  call void @llvm.lifetime.end.p0(i64 4, ptr nonnull %13) #27
  call void @llvm.lifetime.end.p0(i64 8, ptr nonnull %12) #27
  call void @llvm.lifetime.end.p0(i64 8, ptr nonnull %11) #27
  call void @llvm.lifetime.end.p0(i64 8, ptr nonnull %10) #27
  br label %68

68:                                               ; preds = %._crit_edge39, %9
  ret void

69:                                               ; preds = %_ZNK6open3d4core7Indexer11GetInputPtrEll.exit
  %70 = landingpad { ptr, i32 }
          catch ptr null
  %71 = extractvalue { ptr, i32 } %70, 0
  call void @__clang_call_terminate(ptr %71) #37
  unreachable
}